target datalayout = "e-m:e-p270:32:32-p271:32:32-p272:64:64-i64:64-i128:128-f80:128-n8:16:32:64-S128"
target triple = "x86_64-pc-linux-gnu"

%struct.qemu_plugin_u64 = type { ptr, i64 }
%struct.InsnExecCount = type { ptr, i32, %struct.qemu_plugin_u64, ptr }

; Function Attrs: nounwind sspstrong uwtable
define internal void @free_record(ptr noundef %0) #0 {
  %2 = alloca ptr, align 8
  %3 = alloca ptr, align 8
  store ptr %0, ptr %2, align 8
  call void @llvm.lifetime.start.p0(i64 8, ptr %3) #13
  %4 = load ptr, ptr %2, align 8
  store ptr %4, ptr %3, align 8
  %5 = load ptr, ptr %3, align 8
  %6 = getelementptr inbounds nuw %struct.InsnExecCount, ptr %5, i32 0, i32 2
  %7 = getelementptr inbounds nuw %struct.qemu_plugin_u64, ptr %6, i32 0, i32 0
  %8 = load ptr, ptr %7, align 8
  call void @qemu_plugin_scoreboard_free(ptr noundef %8)
  %9 = load ptr, ptr %3, align 8
  %10 = getelementptr inbounds nuw %struct.InsnExecCount, ptr %9, i32 0, i32 0
  %11 = load ptr, ptr %10, align 8
  call void @g_free(ptr noundef %11)
  %12 = load ptr, ptr %3, align 8
  call void @g_free(ptr noundef %12)
  call void @llvm.lifetime.end.p0(i64 8, ptr %3) #13
  ret void
}