; Function Attrs: nounwind sspstrong uwtable
define internal void @free_record(ptr noundef %0) #0 {
  %2 = getelementptr inbounds nuw i8, ptr %0, i64 16
  %3 = load ptr, ptr %2, align 8
  tail call void @qemu_plugin_scoreboard_free(ptr noundef %3) #8
  %4 = load ptr, ptr %0, align 8
  tail call void @g_free(ptr noundef %4) #8
  tail call void @g_free(ptr noundef nonnull %0) #8
  ret void
}